target datalayout = "e-m:e-p270:32:32-p271:32:32-p272:64:64-i64:64-i128:128-f80:128-n8:16:32:64-S128"
target triple = "x86_64-pc-linux-gnu"

%"class.pxrInternal_v0_24__pxrReserved__::HdDataSourceBase" = type { ptr }
%"class.std::__shared_count" = type { ptr }
%"class.std::shared_ptr.16" = type { %"class.std::__shared_ptr.17" }
%"class.std::__shared_ptr.17" = type { ptr, %"class.std::__shared_count" }
%"class.pxrInternal_v0_24__pxrReserved__::HdSampledDataSource" = type { %"class.pxrInternal_v0_24__pxrReserved__::HdDataSourceBase" }
%"class.pxrInternal_v0_24__pxrReserved__::(anonymous namespace)::_Vec4fArrayToVec4dArrayDataSource" = type { %"class.pxrInternal_v0_24__pxrReserved__::HdTypedSampledDataSource.40", %"class.std::shared_ptr.16" }
%"class.pxrInternal_v0_24__pxrReserved__::HdTypedSampledDataSource.40" = type { %"class.pxrInternal_v0_24__pxrReserved__::HdSampledDataSource" }
%"class.pxrInternal_v0_24__pxrReserved__::VtArray" = type { %"class.pxrInternal_v0_24__pxrReserved__::Vt_ArrayBase", ptr }
%"class.pxrInternal_v0_24__pxrReserved__::Vt_ArrayBase" = type { %"struct.pxrInternal_v0_24__pxrReserved__::Vt_ShapeData", ptr }
%"struct.pxrInternal_v0_24__pxrReserved__::Vt_ShapeData" = type { i64, [3 x i32] }
%"class.pxrInternal_v0_24__pxrReserved__::VtArray.44" = type { %"class.pxrInternal_v0_24__pxrReserved__::Vt_ArrayBase", ptr }
%"class.pxrInternal_v0_24__pxrReserved__::GfVec4d" = type { [4 x double] }
%"class.pxrInternal_v0_24__pxrReserved__::GfVec4f" = type { [4 x float] }

; Function Attrs: mustprogress nounwind uwtable
define linkonce_odr noundef ptr @_ZNKSt12__shared_ptrIN32pxrInternal_v0_24__pxrReserved__24HdTypedSampledDataSourceINS0_7VtArrayINS0_7GfVec4fEEEEELN9__gnu_cxx12_Lock_policyE2EE3getEv(ptr noundef nonnull align 8 dereferenceable(16) %0) #1 comdat align 2 {
  %2 = alloca ptr, align 8
  store ptr %0, ptr %2, align 8
  %3 = load ptr, ptr %2, align 8
  %4 = getelementptr inbounds nuw %"class.std::__shared_ptr.17", ptr %3, i32 0, i32 0
  %5 = load ptr, ptr %4, align 8
  ret ptr %5
}

; Function Attrs: mustprogress nounwind uwtable
define linkonce_odr noundef nonnull align 4 dereferenceable(4) ptr @_ZNK32pxrInternal_v0_24__pxrReserved__7GfVec4fixEm(ptr noundef nonnull align 4 dereferenceable(16) %0, i64 noundef %1) #1 comdat align 2 {
  %3 = alloca ptr, align 8
  %4 = alloca i64, align 8
  store ptr %0, ptr %3, align 8
  store i64 %1, ptr %4, align 8
  %5 = load ptr, ptr %3, align 8
  %6 = getelementptr inbounds nuw %"class.pxrInternal_v0_24__pxrReserved__::GfVec4f", ptr %5, i32 0, i32 0
  %7 = load i64, ptr %4, align 8
  %8 = getelementptr inbounds [4 x float], ptr %6, i64 0, i64 %7
  ret ptr %8
}

; Function Attrs: mustprogress nounwind uwtable
define linkonce_odr noundef ptr @_ZNKSt19__shared_ptr_accessIN32pxrInternal_v0_24__pxrReserved__24HdTypedSampledDataSourceINS0_7VtArrayINS0_7GfVec4fEEEEELN9__gnu_cxx12_Lock_policyE2ELb0ELb0EE6_M_getEv(ptr noundef nonnull align 1 dereferenceable(1) %0) #1 comdat align 2 {
  %2 = alloca ptr, align 8
  store ptr %0, ptr %2, align 8
  %3 = load ptr, ptr %2, align 8
  %4 = call noundef ptr @_ZNKSt12__shared_ptrIN32pxrInternal_v0_24__pxrReserved__24HdTypedSampledDataSourceINS0_7VtArrayINS0_7GfVec4fEEEEELN9__gnu_cxx12_Lock_policyE2EE3getEv(ptr noundef nonnull align 8 dereferenceable(16) %3) #4
  ret ptr %4
}

; Function Attrs: mustprogress uwtable
define linkonce_odr void @_ZN32pxrInternal_v0_24__pxrReserved__7GfVec4dC2ERKNS_7GfVec4fE(ptr noundef nonnull align 8 dereferenceable(32) %0, ptr noundef nonnull align 4 dereferenceable(16) %1) unnamed_addr #0 comdat align 2 {
  %3 = alloca ptr, align 8
  %4 = alloca ptr, align 8
  store ptr %0, ptr %3, align 8
  store ptr %1, ptr %4, align 8
  %5 = load ptr, ptr %3, align 8
  %6 = load ptr, ptr %4, align 8
  %7 = call noundef nonnull align 4 dereferenceable(4) ptr @_ZNK32pxrInternal_v0_24__pxrReserved__7GfVec4fixEm(ptr noundef nonnull align 4 dereferenceable(16) %6, i64 noundef 0)
  %8 = load float, ptr %7, align 4
  %9 = fpext float %8 to double
  %10 = getelementptr inbounds nuw %"class.pxrInternal_v0_24__pxrReserved__::GfVec4d", ptr %5, i32 0, i32 0
  %11 = getelementptr inbounds [4 x double], ptr %10, i64 0, i64 0
  store double %9, ptr %11, align 8
  %12 = load ptr, ptr %4, align 8
  %13 = call noundef nonnull align 4 dereferenceable(4) ptr @_ZNK32pxrInternal_v0_24__pxrReserved__7GfVec4fixEm(ptr noundef nonnull align 4 dereferenceable(16) %12, i64 noundef 1)
  %14 = load float, ptr %13, align 4
  %15 = fpext float %14 to double
  %16 = getelementptr inbounds nuw %"class.pxrInternal_v0_24__pxrReserved__::GfVec4d", ptr %5, i32 0, i32 0
  %17 = getelementptr inbounds [4 x double], ptr %16, i64 0, i64 1
  store double %15, ptr %17, align 8
  %18 = load ptr, ptr %4, align 8
  %19 = call noundef nonnull align 4 dereferenceable(4) ptr @_ZNK32pxrInternal_v0_24__pxrReserved__7GfVec4fixEm(ptr noundef nonnull align 4 dereferenceable(16) %18, i64 noundef 2)
  %20 = load float, ptr %19, align 4
  %21 = fpext float %20 to double
  %22 = getelementptr inbounds nuw %"class.pxrInternal_v0_24__pxrReserved__::GfVec4d", ptr %5, i32 0, i32 0
  %23 = getelementptr inbounds [4 x double], ptr %22, i64 0, i64 2
  store double %21, ptr %23, align 8
  %24 = load ptr, ptr %4, align 8
  %25 = call noundef nonnull align 4 dereferenceable(4) ptr @_ZNK32pxrInternal_v0_24__pxrReserved__7GfVec4fixEm(ptr noundef nonnull align 4 dereferenceable(16) %24, i64 noundef 3)
  %26 = load float, ptr %25, align 4
  %27 = fpext float %26 to double
  %28 = getelementptr inbounds nuw %"class.pxrInternal_v0_24__pxrReserved__::GfVec4d", ptr %5, i32 0, i32 0
  %29 = getelementptr inbounds [4 x double], ptr %28, i64 0, i64 3
  store double %27, ptr %29, align 8
  ret void
}

; Function Attrs: mustprogress nounwind uwtable
define linkonce_odr noundef ptr @_ZNKSt19__shared_ptr_accessIN32pxrInternal_v0_24__pxrReserved__24HdTypedSampledDataSourceINS0_7VtArrayINS0_7GfVec4fEEEEELN9__gnu_cxx12_Lock_policyE2ELb0ELb0EEptEv(ptr noundef nonnull align 1 dereferenceable(1) %0) #1 comdat align 2 {
  %2 = alloca ptr, align 8
  store ptr %0, ptr %2, align 8
  %3 = load ptr, ptr %2, align 8
  %4 = call noundef ptr @_ZNKSt19__shared_ptr_accessIN32pxrInternal_v0_24__pxrReserved__24HdTypedSampledDataSourceINS0_7VtArrayINS0_7GfVec4fEEEEELN9__gnu_cxx12_Lock_policyE2ELb0ELb0EE6_M_getEv(ptr noundef nonnull align 1 dereferenceable(1) %3) #4
  ret ptr %4
}

; Function Attrs: mustprogress nounwind uwtable
define linkonce_odr noundef zeroext i1 @_ZNKSt12__shared_ptrIN32pxrInternal_v0_24__pxrReserved__24HdTypedSampledDataSourceINS0_7VtArrayINS0_7GfVec4fEEEEELN9__gnu_cxx12_Lock_policyE2EEcvbEv(ptr noundef nonnull align 8 dereferenceable(16) %0) #1 comdat align 2 {
  %2 = alloca ptr, align 8
  store ptr %0, ptr %2, align 8
  %3 = load ptr, ptr %2, align 8
  %4 = getelementptr inbounds nuw %"class.std::__shared_ptr.17", ptr %3, i32 0, i32 0
  %5 = load ptr, ptr %4, align 8
  %6 = icmp ne ptr %5, null
  ret i1 %6
}

; Function Attrs: mustprogress uwtable
define internal void @_ZN32pxrInternal_v0_24__pxrReserved__12_GLOBAL__N_133_Vec4fArrayToVec4dArrayDataSource13GetTypedValueEf(ptr dead_on_unwind noalias writable sret(%"class.pxrInternal_v0_24__pxrReserved__::VtArray") align 8 %0, ptr noundef nonnull align 8 dereferenceable(24) %1, float noundef %2) unnamed_addr #0 align 2 personality ptr @__gxx_personality_v0 {
  %4 = alloca ptr, align 8
  %5 = alloca ptr, align 8
  %6 = alloca float, align 4
  %7 = alloca i1, align 1
  %8 = alloca i32, align 4
  %9 = alloca %"class.pxrInternal_v0_24__pxrReserved__::VtArray.44", align 8
  %10 = alloca ptr, align 8
  %11 = alloca i32, align 4
  %12 = alloca i64, align 8
  %13 = alloca %"class.pxrInternal_v0_24__pxrReserved__::GfVec4d", align 8
  store ptr %0, ptr %4, align 8
  store ptr %1, ptr %5, align 8
  store float %2, ptr %6, align 4
  %14 = load ptr, ptr %5, align 8
  store i1 false, ptr %7, align 1
  call void @_ZN32pxrInternal_v0_24__pxrReserved__7VtArrayINS_7GfVec4dEEC1Ev(ptr noundef nonnull align 8 dereferenceable(40) %0)
  %15 = getelementptr inbounds nuw %"class.pxrInternal_v0_24__pxrReserved__::(anonymous namespace)::_Vec4fArrayToVec4dArrayDataSource", ptr %14, i32 0, i32 1
  %16 = call noundef zeroext i1 @_ZNKSt12__shared_ptrIN32pxrInternal_v0_24__pxrReserved__24HdTypedSampledDataSourceINS0_7VtArrayINS0_7GfVec4fEEEEELN9__gnu_cxx12_Lock_policyE2EEcvbEv(ptr noundef nonnull align 8 dereferenceable(16) %15) #4
  br i1 %16, label %18, label %17

17:                                               ; preds = %3
  store i1 true, ptr %7, align 1
  store i32 1, ptr %8, align 4
  br label %54

18:                                               ; preds = %3
  %19 = getelementptr inbounds nuw %"class.pxrInternal_v0_24__pxrReserved__::(anonymous namespace)::_Vec4fArrayToVec4dArrayDataSource", ptr %14, i32 0, i32 1
  %20 = call noundef ptr @_ZNKSt19__shared_ptr_accessIN32pxrInternal_v0_24__pxrReserved__24HdTypedSampledDataSourceINS0_7VtArrayINS0_7GfVec4fEEEEELN9__gnu_cxx12_Lock_policyE2ELb0ELb0EEptEv(ptr noundef nonnull align 1 dereferenceable(1) %19) #4
  %21 = load float, ptr %6, align 4
  %22 = load ptr, ptr %20, align 8
  %23 = getelementptr inbounds ptr, ptr %22, i64 4
  %24 = load ptr, ptr %23, align 8
  invoke void %24(ptr dead_on_unwind writable sret(%"class.pxrInternal_v0_24__pxrReserved__::VtArray.44") align 8 %9, ptr noundef nonnull align 8 dereferenceable(8) %20, float noundef %21)
          to label %25 unwind label %45

25:                                               ; preds = %18
  %26 = invoke noundef i64 @_ZNK32pxrInternal_v0_24__pxrReserved__7VtArrayINS_7GfVec4fEE4sizeEv(ptr noundef nonnull align 8 dereferenceable(40) %9)
          to label %27 unwind label %49

27:                                               ; preds = %25
  invoke void @_ZN32pxrInternal_v0_24__pxrReserved__7VtArrayINS_7GfVec4dEE6resizeEm(ptr noundef nonnull align 8 dereferenceable(40) %0, i64 noundef %26)
          to label %28 unwind label %49

28:                                               ; preds = %27
  store i64 0, ptr %12, align 8
  br label %29

29:                                               ; preds = %42, %28
  %30 = load i64, ptr %12, align 8
  %31 = invoke noundef i64 @_ZNK32pxrInternal_v0_24__pxrReserved__7VtArrayINS_7GfVec4fEE4sizeEv(ptr noundef nonnull align 8 dereferenceable(40) %9)
          to label %32 unwind label %49

32:                                               ; preds = %29
  %33 = icmp ult i64 %30, %31
  br i1 %33, label %34, label %53

34:                                               ; preds = %32
  %35 = load i64, ptr %12, align 8
  %36 = invoke noundef nonnull align 4 dereferenceable(16) ptr @_ZNK32pxrInternal_v0_24__pxrReserved__7VtArrayINS_7GfVec4fEEixEm(ptr noundef nonnull align 8 dereferenceable(40) %9, i64 noundef %35)
          to label %37 unwind label %49

37:                                               ; preds = %34
  invoke void @_ZN32pxrInternal_v0_24__pxrReserved__7GfVec4dC2ERKNS_7GfVec4fE(ptr noundef nonnull align 8 dereferenceable(32) %13, ptr noundef nonnull align 4 dereferenceable(16) %36)
          to label %38 unwind label %49

38:                                               ; preds = %37
  %39 = load i64, ptr %12, align 8
  %40 = invoke noundef nonnull align 8 dereferenceable(32) ptr @_ZN32pxrInternal_v0_24__pxrReserved__7VtArrayINS_7GfVec4dEEixEm(ptr noundef nonnull align 8 dereferenceable(40) %0, i64 noundef %39)
          to label %41 unwind label %49

41:                                               ; preds = %38
  call void @llvm.memcpy.p0.p0.i64(ptr align 8 %40, ptr align 8 %13, i64 32, i1 false)
  br label %42

42:                                               ; preds = %41
  %43 = load i64, ptr %12, align 8
  %44 = add i64 %43, 1
  store i64 %44, ptr %12, align 8
  br label %29, !llvm.loop !12

45:                                               ; preds = %18
  %46 = landingpad { ptr, i32 }
          cleanup
  %47 = extractvalue { ptr, i32 } %46, 0
  store ptr %47, ptr %10, align 8
  %48 = extractvalue { ptr, i32 } %46, 1
  store i32 %48, ptr %11, align 4
  br label %58

49:                                               ; preds = %38, %37, %34, %29, %27, %25
  %50 = landingpad { ptr, i32 }
          cleanup
  %51 = extractvalue { ptr, i32 } %50, 0
  store ptr %51, ptr %10, align 8
  %52 = extractvalue { ptr, i32 } %50, 1
  store i32 %52, ptr %11, align 4
  call void @_ZN32pxrInternal_v0_24__pxrReserved__7VtArrayINS_7GfVec4fEED1Ev(ptr noundef nonnull align 8 dereferenceable(40) %9) #4
  br label %58

53:                                               ; preds = %32
  store i1 true, ptr %7, align 1
  store i32 1, ptr %8, align 4
  call void @_ZN32pxrInternal_v0_24__pxrReserved__7VtArrayINS_7GfVec4fEED1Ev(ptr noundef nonnull align 8 dereferenceable(40) %9) #4
  br label %54

54:                                               ; preds = %53, %17
  %55 = load i1, ptr %7, align 1
  br i1 %55, label %57, label %56

56:                                               ; preds = %54
  call void @_ZN32pxrInternal_v0_24__pxrReserved__7VtArrayINS_7GfVec4dEED1Ev(ptr noundef nonnull align 8 dereferenceable(40) %0) #4
  br label %57

57:                                               ; preds = %56, %54
  ret void

58:                                               ; preds = %49, %45
  call void @_ZN32pxrInternal_v0_24__pxrReserved__7VtArrayINS_7GfVec4dEED1Ev(ptr noundef nonnull align 8 dereferenceable(40) %0) #4
  br label %59

59:                                               ; preds = %58
  %60 = load ptr, ptr %10, align 8
  %61 = load i32, ptr %11, align 4
  %62 = insertvalue { ptr, i32 } poison, ptr %60, 0
  %63 = insertvalue { ptr, i32 } %62, i32 %61, 1
  resume { ptr, i32 } %63
}