; Function Attrs: mustprogress uwtable
define internal void @_ZN32pxrInternal_v0_24__pxrReserved__12_GLOBAL__N_133_Vec4fArrayToVec4dArrayDataSource13GetTypedValueEf(ptr dead_on_unwind noalias nonnull writable sret(%"class.pxrInternal_v0_24__pxrReserved__::VtArray") align 8 %0, ptr nocapture noundef nonnull readonly align 8 dereferenceable(24) %1, float noundef %2) unnamed_addr #0 align 2 personality ptr @__gxx_personality_v0 {
  %4 = alloca %"class.pxrInternal_v0_24__pxrReserved__::VtArray.44", align 8
  tail call void @_ZN32pxrInternal_v0_24__pxrReserved__7VtArrayINS_7GfVec4dEEC1Ev(ptr noundef nonnull align 8 dereferenceable(40) %0)
  %5 = getelementptr inbounds nuw i8, ptr %1, i64 8
  %6 = load ptr, ptr %5, align 8
  %.not = icmp eq ptr %6, null
  br i1 %.not, label %38, label %7

7:                                                ; preds = %3
  %8 = load ptr, ptr %6, align 8
  %9 = getelementptr inbounds i8, ptr %8, i64 32
  %10 = load ptr, ptr %9, align 8
  invoke void %10(ptr dead_on_unwind nonnull writable sret(%"class.pxrInternal_v0_24__pxrReserved__::VtArray.44") align 8 %4, ptr noundef nonnull align 8 dereferenceable(8) %6, float noundef %2)
          to label %11 unwind label %34

11:                                               ; preds = %7
  %12 = invoke noundef i64 @_ZNK32pxrInternal_v0_24__pxrReserved__7VtArrayINS_7GfVec4fEE4sizeEv(ptr noundef nonnull align 8 dereferenceable(40) %4)
          to label %13 unwind label %.loopexit.split-lp

13:                                               ; preds = %11
  invoke void @_ZN32pxrInternal_v0_24__pxrReserved__7VtArrayINS_7GfVec4dEE6resizeEm(ptr noundef nonnull align 8 dereferenceable(40) %0, i64 noundef %12)
          to label %.preheader unwind label %.loopexit.split-lp

.preheader:                                       ; preds = %13, %28
  %.0 = phi i64 [ %33, %28 ], [ 0, %13 ]
  %14 = invoke noundef i64 @_ZNK32pxrInternal_v0_24__pxrReserved__7VtArrayINS_7GfVec4fEE4sizeEv(ptr noundef nonnull align 8 dereferenceable(40) %4)
          to label %15 unwind label %.loopexit

15:                                               ; preds = %.preheader
  %16 = icmp ult i64 %.0, %14
  br i1 %16, label %17, label %37

17:                                               ; preds = %15
  %18 = invoke noundef nonnull align 4 dereferenceable(16) ptr @_ZNK32pxrInternal_v0_24__pxrReserved__7VtArrayINS_7GfVec4fEEixEm(ptr noundef nonnull align 8 dereferenceable(40) %4, i64 noundef %.0)
          to label %19 unwind label %.loopexit

19:                                               ; preds = %17
  %20 = load float, ptr %18, align 4
  %21 = getelementptr inbounds i8, ptr %18, i64 4
  %22 = load float, ptr %21, align 4
  %23 = getelementptr inbounds i8, ptr %18, i64 8
  %24 = load float, ptr %23, align 4
  %25 = getelementptr inbounds i8, ptr %18, i64 12
  %26 = load float, ptr %25, align 4
  %27 = invoke noundef nonnull align 8 dereferenceable(32) ptr @_ZN32pxrInternal_v0_24__pxrReserved__7VtArrayINS_7GfVec4dEEixEm(ptr noundef nonnull align 8 dereferenceable(40) %0, i64 noundef %.0)
          to label %28 unwind label %.loopexit

28:                                               ; preds = %19
  %29 = fpext float %26 to double
  %30 = fpext float %24 to double
  %31 = fpext float %22 to double
  %32 = fpext float %20 to double
  store double %32, ptr %27, align 8
  %.sroa.2.0..sroa_idx = getelementptr inbounds i8, ptr %27, i64 8
  store double %31, ptr %.sroa.2.0..sroa_idx, align 8
  %.sroa.3.0..sroa_idx = getelementptr inbounds i8, ptr %27, i64 16
  store double %30, ptr %.sroa.3.0..sroa_idx, align 8
  %.sroa.4.0..sroa_idx = getelementptr inbounds i8, ptr %27, i64 24
  store double %29, ptr %.sroa.4.0..sroa_idx, align 8
  %33 = add nuw i64 %.0, 1
  br label %.preheader, !llvm.loop !30

34:                                               ; preds = %7
  %35 = landingpad { ptr, i32 }
          cleanup
  br label %39

.loopexit:                                        ; preds = %.preheader, %17, %19
  %lpad.loopexit = landingpad { ptr, i32 }
          cleanup
  br label %36

.loopexit.split-lp:                               ; preds = %11, %13
  %lpad.loopexit.split-lp = landingpad { ptr, i32 }
          cleanup
  br label %36

36:                                               ; preds = %.loopexit.split-lp, %.loopexit
  %lpad.phi = phi { ptr, i32 } [ %lpad.loopexit, %.loopexit ], [ %lpad.loopexit.split-lp, %.loopexit.split-lp ]
  call void @_ZN32pxrInternal_v0_24__pxrReserved__7VtArrayINS_7GfVec4fEED1Ev(ptr noundef nonnull align 8 dereferenceable(40) %4) #18
  br label %39

37:                                               ; preds = %15
  call void @_ZN32pxrInternal_v0_24__pxrReserved__7VtArrayINS_7GfVec4fEED1Ev(ptr noundef nonnull align 8 dereferenceable(40) %4) #18
  br label %38

38:                                               ; preds = %37, %3
  ret void

39:                                               ; preds = %36, %34
  %.pn = phi { ptr, i32 } [ %lpad.phi, %36 ], [ %35, %34 ]
  call void @_ZN32pxrInternal_v0_24__pxrReserved__7VtArrayINS_7GfVec4dEED1Ev(ptr noundef nonnull align 8 dereferenceable(40) %0) #18
  resume { ptr, i32 } %.pn
}